target datalayout = "e-m:e-p270:32:32-p271:32:32-p272:64:64-i64:64-i128:128-f80:128-n8:16:32:64-S128"
target triple = "x86_64-pc-linux-gnu"

@H5_lib_vers_info_g = global [29 x i8] c"HDF5 library version: 1.15.0\00", align 16
@.str.60 = private unnamed_addr constant [5 x i8] c"%s%s\00", align 1
@.str.62 = private unnamed_addr constant [1 x i8] zeroinitializer, align 1
@stderr = external global ptr, align 8
@H5check_version.checked = internal global i32 0, align 4
@H5check_version.disable_version_check = internal global i32 0, align 4
@H5check_version.version_mismatch_warning = internal global ptr @.str.71, align 8
@H5check_version.release_mismatch_warning = internal global ptr @.str.72, align 8
@.str.73 = private unnamed_addr constant [27 x i8] c"HDF5_DISABLE_VERSION_CHECK\00", align 1
@.str.74 = private unnamed_addr constant [203 x i8] c"You can, at your own risk, disable this warning by setting the environment\0Avariable 'HDF5_DISABLE_VERSION_CHECK' to a value of '1'.\0ASetting it to 2 or higher will suppress the warning messages totally.\0A\00", align 1
@.str.75 = private unnamed_addr constant [43 x i8] c"Headers are %u.%u.%u, library is %u.%u.%u\0A\00", align 1
@.str.76 = private unnamed_addr constant [3 x i8] c"%s\00", align 1
@H5build_settings = external constant [0 x i8], align 1
@.str.77 = private unnamed_addr constant [8 x i8] c"Bye...\0A\00", align 1
@.str.78 = private unnamed_addr constant [111 x i8] c"%s'HDF5_DISABLE_VERSION_CHECK' environment variable is set to %d, application will\0Acontinue at your own risk.\0A\00", align 1
@VERS_RELEASE_EXCEPTIONS = internal constant [1 x i32] zeroinitializer, align 4
@.str.79 = private unnamed_addr constant [35 x i8] c"HDF5 library version: %d.%d.%d%s%s\00", align 1
@.str.80 = private unnamed_addr constant [2 x i8] c"-\00", align 1
@.str.82 = private unnamed_addr constant [129 x i8] c"Library version information are:\0AH5_VERS_MAJOR=%d, H5_VERS_MINOR=%d, H5_VERS_RELEASE=%d, H5_VERS_SUBRELEASE=%s,\0AH5_VERS_INFO=%s\0A\00", align 1
@.str.83 = private unnamed_addr constant [29 x i8] c"HDF5 library version: 1.15.0\00", align 1

; Function Attrs: nounwind uwtable
define i32 @H5check_version(i32 noundef %0, i32 noundef %1, i32 noundef %2) #0 {
  %4 = alloca i32, align 4
  %5 = alloca i32, align 4
  %6 = alloca i32, align 4
  %7 = alloca [256 x i8], align 16
  %8 = alloca [1 x i8], align 1
  %9 = alloca i32, align 4
  %10 = alloca ptr, align 8
  %11 = alloca i32, align 4
  store i32 %0, ptr %4, align 4
  store i32 %1, ptr %5, align 4
  store i32 %2, ptr %6, align 4
  call void @llvm.memset.p0.i64(ptr align 1 %8, i8 0, i64 1, i1 false)
  store i32 0, ptr %9, align 4
  %12 = load i32, ptr @H5check_version.checked, align 4
  %13 = icmp ne i32 %12, 0
  br i1 %13, label %14, label %17

14:                                               ; preds = %3
  br label %15

15:                                               ; preds = %14
  store i32 0, ptr %9, align 4
  br label %144

16:                                               ; No predecessors!
  br label %17

17:                                               ; preds = %16, %3
  %18 = call ptr @getenv(ptr noundef @.str.73) #10
  store ptr %18, ptr %10, align 8
  %19 = load ptr, ptr %10, align 8
  %20 = icmp ne ptr %19, null
  br i1 %20, label %21, label %37

21:                                               ; preds = %17
  %22 = call ptr @__ctype_b_loc() #11
  %23 = load ptr, ptr %22, align 8
  %24 = load ptr, ptr %10, align 8
  %25 = load i8, ptr %24, align 1
  %26 = sext i8 %25 to i32
  %27 = sext i32 %26 to i64
  %28 = getelementptr inbounds i16, ptr %23, i64 %27
  %29 = load i16, ptr %28, align 2
  %30 = zext i16 %29 to i32
  %31 = and i32 %30, 2048
  %32 = icmp ne i32 %31, 0
  br i1 %32, label %33, label %37

33:                                               ; preds = %21
  %34 = load ptr, ptr %10, align 8
  %35 = call i64 @strtol(ptr noundef %34, ptr noundef null, i32 noundef 0) #10
  %36 = trunc i64 %35 to i32
  store i32 %36, ptr @H5check_version.disable_version_check, align 4
  br label %37

37:                                               ; preds = %33, %21, %17
  %38 = load i32, ptr %4, align 4
  %39 = icmp ne i32 1, %38
  br i1 %39, label %43, label %40

40:                                               ; preds = %37
  %41 = load i32, ptr %5, align 4
  %42 = icmp ne i32 15, %41
  br i1 %42, label %43, label %72

43:                                               ; preds = %40, %37
  %44 = load i32, ptr @H5check_version.disable_version_check, align 4
  switch i32 %44, label %70 [
    i32 0, label %45
    i32 1, label %58
  ]

45:                                               ; preds = %43
  %46 = load ptr, ptr @stderr, align 8
  %47 = load ptr, ptr @H5check_version.version_mismatch_warning, align 8
  %48 = call i32 (ptr, ptr, ...) @fprintf(ptr noundef %46, ptr noundef @.str.60, ptr noundef %47, ptr noundef @.str.74) #10
  %49 = load ptr, ptr @stderr, align 8
  %50 = load i32, ptr %4, align 4
  %51 = load i32, ptr %5, align 4
  %52 = load i32, ptr %6, align 4
  %53 = call i32 (ptr, ptr, ...) @fprintf(ptr noundef %49, ptr noundef @.str.75, i32 noundef %50, i32 noundef %51, i32 noundef %52, i32 noundef 1, i32 noundef 15, i32 noundef 0) #10
  %54 = load ptr, ptr @stderr, align 8
  %55 = call i32 (ptr, ptr, ...) @fprintf(ptr noundef %54, ptr noundef @.str.76, ptr noundef @H5build_settings) #10
  %56 = load ptr, ptr @stderr, align 8
  %57 = call i32 @fputs(ptr noundef @.str.77, ptr noundef %56)
  call void @abort() #14
  unreachable

58:                                               ; preds = %43
  %59 = load ptr, ptr @stderr, align 8
  %60 = load ptr, ptr @H5check_version.version_mismatch_warning, align 8
  %61 = load i32, ptr @H5check_version.disable_version_check, align 4
  %62 = call i32 (ptr, ptr, ...) @fprintf(ptr noundef %59, ptr noundef @.str.78, ptr noundef %60, i32 noundef %61) #10
  %63 = load ptr, ptr @stderr, align 8
  %64 = load i32, ptr %4, align 4
  %65 = load i32, ptr %5, align 4
  %66 = load i32, ptr %6, align 4
  %67 = call i32 (ptr, ptr, ...) @fprintf(ptr noundef %63, ptr noundef @.str.75, i32 noundef %64, i32 noundef %65, i32 noundef %66, i32 noundef 1, i32 noundef 15, i32 noundef 0) #10
  %68 = load ptr, ptr @stderr, align 8
  %69 = call i32 (ptr, ptr, ...) @fprintf(ptr noundef %68, ptr noundef @.str.76, ptr noundef @H5build_settings) #10
  br label %71

70:                                               ; preds = %43
  br label %71

71:                                               ; preds = %70, %58
  br label %72

72:                                               ; preds = %71, %40
  %73 = load i32, ptr %6, align 4
  %74 = icmp ne i32 0, %73
  br i1 %74, label %75, label %122

75:                                               ; preds = %72
  store i32 0, ptr %11, align 4
  br label %76

76:                                               ; preds = %118, %75
  %77 = load i32, ptr %11, align 4
  %78 = icmp ult i32 %77, 1
  br i1 %78, label %79, label %121

79:                                               ; preds = %76
  %80 = load i32, ptr %11, align 4
  %81 = zext i32 %80 to i64
  %82 = getelementptr inbounds [1 x i32], ptr @VERS_RELEASE_EXCEPTIONS, i64 0, i64 %81
  %83 = load i32, ptr %82, align 4
  %84 = load i32, ptr %6, align 4
  %85 = icmp eq i32 %83, %84
  br i1 %85, label %92, label %86

86:                                               ; preds = %79
  %87 = load i32, ptr %11, align 4
  %88 = zext i32 %87 to i64
  %89 = getelementptr inbounds [1 x i32], ptr @VERS_RELEASE_EXCEPTIONS, i64 0, i64 %88
  %90 = load i32, ptr %89, align 4
  %91 = icmp eq i32 %90, 0
  br i1 %91, label %92, label %117

92:                                               ; preds = %86, %79
  %93 = load i32, ptr @H5check_version.disable_version_check, align 4
  switch i32 %93, label %115 [
    i32 0, label %94
    i32 1, label %105
  ]

94:                                               ; preds = %92
  %95 = load ptr, ptr @stderr, align 8
  %96 = load ptr, ptr @H5check_version.release_mismatch_warning, align 8
  %97 = call i32 (ptr, ptr, ...) @fprintf(ptr noundef %95, ptr noundef @.str.60, ptr noundef %96, ptr noundef @.str.74) #10
  %98 = load ptr, ptr @stderr, align 8
  %99 = load i32, ptr %4, align 4
  %100 = load i32, ptr %5, align 4
  %101 = load i32, ptr %6, align 4
  %102 = call i32 (ptr, ptr, ...) @fprintf(ptr noundef %98, ptr noundef @.str.75, i32 noundef %99, i32 noundef %100, i32 noundef %101, i32 noundef 1, i32 noundef 15, i32 noundef 0) #10
  %103 = load ptr, ptr @stderr, align 8
  %104 = call i32 @fputs(ptr noundef @.str.77, ptr noundef %103)
  call void @abort() #14
  unreachable

105:                                              ; preds = %92
  %106 = load ptr, ptr @stderr, align 8
  %107 = load ptr, ptr @H5check_version.release_mismatch_warning, align 8
  %108 = load i32, ptr @H5check_version.disable_version_check, align 4
  %109 = call i32 (ptr, ptr, ...) @fprintf(ptr noundef %106, ptr noundef @.str.78, ptr noundef %107, i32 noundef %108) #10
  %110 = load ptr, ptr @stderr, align 8
  %111 = load i32, ptr %4, align 4
  %112 = load i32, ptr %5, align 4
  %113 = load i32, ptr %6, align 4
  %114 = call i32 (ptr, ptr, ...) @fprintf(ptr noundef %110, ptr noundef @.str.75, i32 noundef %111, i32 noundef %112, i32 noundef %113, i32 noundef 1, i32 noundef 15, i32 noundef 0) #10
  br label %116

115:                                              ; preds = %92
  br label %116

116:                                              ; preds = %115, %105
  br label %117

117:                                              ; preds = %116, %86
  br label %118

118:                                              ; preds = %117
  %119 = load i32, ptr %11, align 4
  %120 = add i32 %119, 1
  store i32 %120, ptr %11, align 4
  br label %76

121:                                              ; preds = %76
  br label %122

122:                                              ; preds = %121, %72
  store i32 1, ptr @H5check_version.checked, align 4
  %123 = load i32, ptr @H5check_version.disable_version_check, align 4
  %124 = icmp ne i32 %123, 0
  br i1 %124, label %143, label %125

125:                                              ; preds = %122
  %126 = getelementptr inbounds [256 x i8], ptr %7, i64 0, i64 0
  %127 = getelementptr inbounds [1 x i8], ptr %8, i64 0, i64 0
  %128 = load i8, ptr %127, align 1
  %129 = sext i8 %128 to i32
  %130 = icmp ne i32 %129, 0
  %131 = select i1 %130, ptr @.str.80, ptr @.str.62
  %132 = getelementptr inbounds [1 x i8], ptr %8, i64 0, i64 0
  %133 = call i32 (ptr, i64, ptr, ...) @snprintf(ptr noundef %126, i64 noundef 256, ptr noundef @.str.79, i32 noundef 1, i32 noundef 15, i32 noundef 0, ptr noundef %131, ptr noundef %132) #10
  %134 = getelementptr inbounds [256 x i8], ptr %7, i64 0, i64 0
  %135 = call i32 @strcmp(ptr noundef %134, ptr noundef @H5_lib_vers_info_g) #12
  %136 = icmp ne i32 %135, 0
  br i1 %136, label %137, label %142

137:                                              ; preds = %125
  %138 = load ptr, ptr @stderr, align 8
  %139 = call i32 @fputs(ptr noundef @.str.81, ptr noundef %138)
  %140 = load ptr, ptr @stderr, align 8
  %141 = call i32 (ptr, ptr, ...) @fprintf(ptr noundef %140, ptr noundef @.str.82, i32 noundef 1, i32 noundef 15, i32 noundef 0, ptr noundef @.str.62, ptr noundef @.str.83) #10
  br label %142

142:                                              ; preds = %137, %125
  br label %143

143:                                              ; preds = %142, %122
  br label %144

144:                                              ; preds = %143, %15
  %145 = load i32, ptr %9, align 4
  ret i32 %145
}