; Function Attrs: nounwind uwtable
define noundef i32 @H5check_version(i32 noundef %0, i32 noundef %1, i32 noundef %2) local_unnamed_addr #0 {
  %4 = alloca [256 x i8], align 16
  %5 = alloca [1 x i8], align 1
  store i8 0, ptr %5, align 1
  %.b = load i1, ptr @H5check_version.checked, align 4
  br i1 %.b, label %59, label %6

6:                                                ; preds = %3
  %7 = tail call ptr @getenv(ptr noundef nonnull @.str.73) #21
  %.not = icmp eq ptr %7, null
  br i1 %.not, label %thread-pre-split, label %8

8:                                                ; preds = %6
  %9 = tail call ptr @__ctype_b_loc() #24
  %10 = load ptr, ptr %9, align 8
  %11 = load i8, ptr %7, align 1
  %12 = sext i8 %11 to i64
  %13 = getelementptr inbounds i16, ptr %10, i64 %12
  %14 = load i16, ptr %13, align 2
  %15 = and i16 %14, 2048
  %.not29 = icmp eq i16 %15, 0
  br i1 %.not29, label %thread-pre-split, label %16

16:                                               ; preds = %8
  %17 = tail call i64 @strtol(ptr nocapture noundef nonnull %7, ptr noundef null, i32 noundef 0) #21
  %18 = trunc i64 %17 to i32
  store i32 %18, ptr @H5check_version.disable_version_check, align 4
  br label %19

thread-pre-split:                                 ; preds = %6, %8
  %.pr.pre36.pre38.pr = load i32, ptr @H5check_version.disable_version_check, align 4
  br label %19

19:                                               ; preds = %thread-pre-split, %16
  %.pr.pre36.pre38 = phi i32 [ %.pr.pre36.pre38.pr, %thread-pre-split ], [ %18, %16 ]
  %20 = icmp ne i32 %0, 1
  %21 = icmp ne i32 %1, 15
  %or.cond = or i1 %20, %21
  br i1 %or.cond, label %22, label %37

22:                                               ; preds = %19
  switch i32 %.pr.pre36.pre38, label %37 [
    i32 0, label %23
    i32 1, label %31
  ]

23:                                               ; preds = %22
  %24 = load ptr, ptr @stderr, align 8
  %25 = tail call i32 (ptr, ptr, ...) @fprintf(ptr noundef %24, ptr noundef nonnull @.str.60, ptr noundef nonnull @.str.71, ptr noundef nonnull @.str.74) #23
  %26 = load ptr, ptr @stderr, align 8
  %27 = tail call i32 (ptr, ptr, ...) @fprintf(ptr noundef %26, ptr noundef nonnull @.str.75, i32 noundef %0, i32 noundef %1, i32 noundef %2, i32 noundef 1, i32 noundef 15, i32 noundef 0) #23
  %28 = load ptr, ptr @stderr, align 8
  %fputs30 = tail call i32 @fputs(ptr nonnull @H5build_settings, ptr %28) #22
  %29 = load ptr, ptr @stderr, align 8
  %30 = tail call i64 @fwrite(ptr nonnull @.str.77, i64 7, i64 1, ptr %29) #22
  tail call void @abort() #27
  unreachable

31:                                               ; preds = %22
  %32 = load ptr, ptr @stderr, align 8
  %33 = tail call i32 (ptr, ptr, ...) @fprintf(ptr noundef %32, ptr noundef nonnull @.str.78, ptr noundef nonnull @.str.71, i32 noundef 1) #23
  %34 = load ptr, ptr @stderr, align 8
  %35 = tail call i32 (ptr, ptr, ...) @fprintf(ptr noundef %34, ptr noundef nonnull @.str.75, i32 noundef %0, i32 noundef %1, i32 noundef %2, i32 noundef 1, i32 noundef 15, i32 noundef 0) #23
  %36 = load ptr, ptr @stderr, align 8
  %fputs = tail call i32 @fputs(ptr nonnull @H5build_settings, ptr %36) #22
  %.pr.pre36.pre = load i32, ptr @H5check_version.disable_version_check, align 4
  br label %37

37:                                               ; preds = %31, %22, %19
  %.pr.pre36 = phi i32 [ %.pr.pre36.pre, %31 ], [ %.pr.pre36.pre38, %22 ], [ %.pr.pre36.pre38, %19 ]
  %.not31 = icmp eq i32 %2, 0
  br i1 %.not31, label %.critedge, label %38

38:                                               ; preds = %37
  switch i32 %.pr.pre36, label %.critedge.thread [
    i32 0, label %39
    i32 1, label %46
  ]

.critedge.thread:                                 ; preds = %38
  store i1 true, ptr @H5check_version.checked, align 4
  br label %59

39:                                               ; preds = %38
  %40 = load ptr, ptr @stderr, align 8
  %41 = tail call i32 (ptr, ptr, ...) @fprintf(ptr noundef %40, ptr noundef nonnull @.str.60, ptr noundef nonnull @.str.72, ptr noundef nonnull @.str.74) #23
  %42 = load ptr, ptr @stderr, align 8
  %43 = tail call i32 (ptr, ptr, ...) @fprintf(ptr noundef %42, ptr noundef nonnull @.str.75, i32 noundef %0, i32 noundef %1, i32 noundef %2, i32 noundef 1, i32 noundef 15, i32 noundef 0) #23
  %44 = load ptr, ptr @stderr, align 8
  %45 = tail call i64 @fwrite(ptr nonnull @.str.77, i64 7, i64 1, ptr %44) #22
  tail call void @abort() #27
  unreachable

46:                                               ; preds = %38
  %47 = load ptr, ptr @stderr, align 8
  %48 = tail call i32 (ptr, ptr, ...) @fprintf(ptr noundef %47, ptr noundef nonnull @.str.78, ptr noundef nonnull @.str.72, i32 noundef 1) #23
  %49 = load ptr, ptr @stderr, align 8
  %50 = tail call i32 (ptr, ptr, ...) @fprintf(ptr noundef %49, ptr noundef nonnull @.str.75, i32 noundef %0, i32 noundef %1, i32 noundef %2, i32 noundef 1, i32 noundef 15, i32 noundef 0) #23
  %.pr.pre = load i32, ptr @H5check_version.disable_version_check, align 4
  br label %.critedge

.critedge:                                        ; preds = %46, %37
  %.pr = phi i32 [ %.pr.pre, %46 ], [ %.pr.pre36, %37 ]
  store i1 true, ptr @H5check_version.checked, align 4
  %.not32 = icmp eq i32 %.pr, 0
  br i1 %.not32, label %51, label %59

51:                                               ; preds = %.critedge
  %52 = call i32 (ptr, i64, ptr, ...) @snprintf(ptr noundef nonnull dereferenceable(1) %4, i64 noundef 256, ptr noundef nonnull @.str.79, i32 noundef 1, i32 noundef 15, i32 noundef 0, ptr noundef nonnull @.str.62, ptr noundef nonnull %5) #21
  %53 = call i32 @strcmp(ptr noundef nonnull dereferenceable(1) %4, ptr noundef nonnull dereferenceable(1) @H5_lib_vers_info_g) #25
  %.not34 = icmp eq i32 %53, 0
  br i1 %.not34, label %59, label %54

54:                                               ; preds = %51
  %55 = load ptr, ptr @stderr, align 8
  %56 = call i64 @fwrite(ptr nonnull @.str.81, i64 279, i64 1, ptr %55) #22
  %57 = load ptr, ptr @stderr, align 8
  %58 = call i32 (ptr, ptr, ...) @fprintf(ptr noundef %57, ptr noundef nonnull @.str.82, i32 noundef 1, i32 noundef 15, i32 noundef 0, ptr noundef nonnull @.str.62, ptr noundef nonnull @.str.83) #23
  br label %59

59:                                               ; preds = %.critedge.thread, %3, %.critedge, %54, %51
  ret i32 0
}